; Function Attrs: nounwind sspstrong uwtable
define internal i64 @argf_eof(i64 noundef %0) #0 {
  %2 = tail call fastcc i32 @argf_next_argv(i64 noundef %0)
  %3 = inttoptr i64 %0 to ptr
  %4 = getelementptr inbounds nuw i8, ptr %3, i64 32
  %5 = load ptr, ptr %4, align 8, !tbaa !59
  %6 = getelementptr inbounds nuw i8, ptr %5, i64 8
  %7 = load i64, ptr %6, align 8, !tbaa !61
  %8 = and i64 %7, -5
  %.not11 = icmp eq i64 %8, 0
  br i1 %.not11, label %36, label %9

9:                                                ; preds = %1
  %10 = getelementptr inbounds nuw i8, ptr %5, i64 80
  %11 = load i8, ptr %10, align 8, !tbaa !173
  %12 = icmp eq i8 %11, 0
  br i1 %12, label %37, label %13

13:                                               ; preds = %9
  %14 = tail call fastcc i32 @argf_next_argv(i64 noundef %0)
  %15 = load ptr, ptr %4, align 8, !tbaa !59
  %16 = getelementptr inbounds nuw i8, ptr %15, i64 8
  %17 = load i64, ptr %16, align 8, !tbaa !61
  %18 = load i64, ptr @rb_stdin, align 8, !tbaa !23
  %19 = icmp eq i64 %17, %18
  br i1 %19, label %20, label %34

20:                                               ; preds = %13
  %21 = icmp eq i64 %17, 0
  %22 = and i64 %17, 7
  %23 = icmp ne i64 %22, 0
  %24 = or i1 %21, %23
  br i1 %24, label %rbimpl_RB_TYPE_P_fastpath.exit.thread, label %rbimpl_RB_TYPE_P_fastpath.exit

rbimpl_RB_TYPE_P_fastpath.exit:                   ; preds = %20
  %25 = inttoptr i64 %17 to ptr
  %26 = load i64, ptr %25, align 8, !tbaa !25
  %27 = and i64 %26, 31
  %28 = icmp eq i64 %27, 11
  br i1 %28, label %34, label %rbimpl_RB_TYPE_P_fastpath.exit.thread

rbimpl_RB_TYPE_P_fastpath.exit.thread:            ; preds = %20, %rbimpl_RB_TYPE_P_fastpath.exit
  %29 = tail call i64 @rb_frame_this_func() #28
  %30 = tail call i32 @rb_keyword_given_p() #28
  %31 = icmp ne i32 %30, 0
  %32 = zext i1 %31 to i32
  %33 = tail call i64 @rb_funcallv_public_kw(i64 noundef %17, i64 noundef %29, i32 noundef 0, ptr noundef null, i32 noundef %32) #28
  br label %37

34:                                               ; preds = %13, %rbimpl_RB_TYPE_P_fastpath.exit
  %35 = tail call i64 @rb_io_eof(i64 noundef %17)
  %.not = icmp eq i64 %35, 0
  br i1 %.not, label %36, label %37

36:                                               ; preds = %34, %1
  br label %37

37:                                               ; preds = %34, %9, %36, %rbimpl_RB_TYPE_P_fastpath.exit.thread
  %.0 = phi i64 [ 0, %36 ], [ %33, %rbimpl_RB_TYPE_P_fastpath.exit.thread ], [ 20, %9 ], [ 20, %34 ]
  ret i64 %.0
}